; Function Attrs: nounwind uwtable
define noundef i32 @If_CutCountTotalFanins(ptr noundef readonly captures(none) %0) local_unnamed_addr #0 {
  %2 = alloca %struct.timespec, align 8
  %3 = alloca %struct.timespec, align 8
  call void @llvm.lifetime.start.p0(i64 16, ptr nonnull %3) #19
  %4 = call i32 @clock_gettime(i32 noundef 1, ptr noundef nonnull %3) #19
  %5 = icmp slt i32 %4, 0
  br i1 %5, label %Abc_Clock.exit, label %6

6:                                                ; preds = %1
  %7 = load i64, ptr %3, align 8, !tbaa !126
  %.neg30 = mul i64 %7, -1000000
  %8 = getelementptr inbounds nuw i8, ptr %3, i64 8
  %9 = load i64, ptr %8, align 8, !tbaa !129
  %.neg = sdiv i64 %9, -1000
  %.neg31 = add i64 %.neg, %.neg30
  br label %Abc_Clock.exit

Abc_Clock.exit:                                   ; preds = %1, %6
  %.0.i.neg = phi i64 [ %.neg31, %6 ], [ 1, %1 ]
  call void @llvm.lifetime.end.p0(i64 16, ptr nonnull %3) #19
  %10 = call noalias dereferenceable_or_null(16) ptr @malloc(i64 noundef 16) #22
  %11 = getelementptr inbounds nuw i8, ptr %10, i64 4
  store i32 100, ptr %10, align 8, !tbaa !134
  %12 = call noalias dereferenceable_or_null(400) ptr @malloc(i64 noundef 400) #22
  %13 = getelementptr inbounds nuw i8, ptr %10, i64 8
  store ptr %12, ptr %13, align 8, !tbaa !109
  %14 = getelementptr inbounds nuw i8, ptr %0, i64 40
  %15 = load ptr, ptr %14, align 8, !tbaa !92
  %16 = getelementptr i8, ptr %15, i64 4
  %.val2632 = load i32, ptr %16, align 4, !tbaa !130
  %17 = icmp sgt i32 %.val2632, 0
  br i1 %17, label %.lr.ph, label %.critedge

.lr.ph:                                           ; preds = %Abc_Clock.exit, %35
  %18 = phi ptr [ %36, %35 ], [ %15, %Abc_Clock.exit ]
  %indvars.iv = phi i64 [ %indvars.iv.next, %35 ], [ 0, %Abc_Clock.exit ]
  %.01934 = phi i32 [ %.1, %35 ], [ 0, %Abc_Clock.exit ]
  %.02033 = phi i32 [ %.121, %35 ], [ 0, %Abc_Clock.exit ]
  %19 = getelementptr i8, ptr %18, i64 8
  %.val = load ptr, ptr %19, align 8, !tbaa !93
  %20 = getelementptr inbounds nuw ptr, ptr %.val, i64 %indvars.iv
  %21 = load ptr, ptr %20, align 8, !tbaa !95
  %.val23 = load i32, ptr %21, align 8
  %22 = and i32 %.val23, 15
  %.not = icmp eq i32 %22, 4
  br i1 %.not, label %23, label %35

23:                                               ; preds = %.lr.ph
  %24 = getelementptr inbounds nuw i8, ptr %21, i64 12
  %25 = load i32, ptr %24, align 4, !tbaa !104
  %.not22 = icmp eq i32 %25, 0
  br i1 %.not22, label %35, label %26

26:                                               ; preds = %23
  %27 = getelementptr inbounds nuw i8, ptr %21, i64 108
  %28 = load i64, ptr %27, align 4
  %29 = trunc i64 %28 to i32
  %30 = lshr i32 %29, 24
  %31 = add nsw i32 %30, %.02033
  store i32 0, ptr %11, align 4, !tbaa !132
  %32 = getelementptr i8, ptr %21, i64 24
  %.val24 = load ptr, ptr %32, align 8, !tbaa !122
  call void @If_CutFoundFanins_rec(ptr noundef %.val24, ptr noundef nonnull %10)
  %33 = getelementptr i8, ptr %21, i64 32
  %.val25 = load ptr, ptr %33, align 8, !tbaa !123
  call void @If_CutFoundFanins_rec(ptr noundef %.val25, ptr noundef nonnull %10)
  %.val27 = load i32, ptr %11, align 4, !tbaa !132
  %34 = add nsw i32 %.val27, %.01934
  %.pre = load ptr, ptr %14, align 8, !tbaa !92
  br label %35

35:                                               ; preds = %.lr.ph, %23, %26
  %36 = phi ptr [ %.pre, %26 ], [ %18, %23 ], [ %18, %.lr.ph ]
  %.121 = phi i32 [ %31, %26 ], [ %.02033, %23 ], [ %.02033, %.lr.ph ]
  %.1 = phi i32 [ %34, %26 ], [ %.01934, %23 ], [ %.01934, %.lr.ph ]
  %indvars.iv.next = add nuw nsw i64 %indvars.iv, 1
  %37 = getelementptr i8, ptr %36, i64 4
  %.val26 = load i32, ptr %37, align 4, !tbaa !130
  %38 = sext i32 %.val26 to i64
  %39 = icmp slt i64 %indvars.iv.next, %38
  br i1 %39, label %.lr.ph, label %.critedge, !llvm.loop !135

.critedge:                                        ; preds = %35, %Abc_Clock.exit
  %.020.lcssa = phi i32 [ 0, %Abc_Clock.exit ], [ %.121, %35 ]
  %.019.lcssa = phi i32 [ 0, %Abc_Clock.exit ], [ %.1, %35 ]
  call void (i32, ptr, ...) @Abc_Print(i32 noundef 1, ptr noundef nonnull @.str.9, i32 noundef %.020.lcssa, i32 noundef %.019.lcssa)
  call void @llvm.lifetime.start.p0(i64 16, ptr nonnull %2) #19
  %40 = call i32 @clock_gettime(i32 noundef 1, ptr noundef nonnull %2) #19
  %41 = icmp slt i32 %40, 0
  br i1 %41, label %Abc_Clock.exit29, label %42

42:                                               ; preds = %.critedge
  %43 = load i64, ptr %2, align 8, !tbaa !126
  %44 = mul nsw i64 %43, 1000000
  %45 = getelementptr inbounds nuw i8, ptr %2, i64 8
  %46 = load i64, ptr %45, align 8, !tbaa !129
  %47 = sdiv i64 %46, 1000
  %48 = add nsw i64 %47, %44
  br label %Abc_Clock.exit29

Abc_Clock.exit29:                                 ; preds = %.critedge, %42
  %.0.i28 = phi i64 [ %48, %42 ], [ -1, %.critedge ]
  call void @llvm.lifetime.end.p0(i64 16, ptr nonnull %2) #19
  %49 = add i64 %.0.i28, %.0.i.neg
  call void (i32, ptr, ...) @Abc_Print(i32 noundef 1, ptr noundef nonnull @.str.13, ptr noundef nonnull @.str.10)
  %50 = sitofp i64 %49 to double
  %51 = fdiv double %50, 1.000000e+06
  call void (i32, ptr, ...) @Abc_Print(i32 noundef 1, ptr noundef nonnull @.str.14, double noundef %51)
  %52 = load ptr, ptr %13, align 8, !tbaa !109
  %.not.i = icmp eq ptr %52, null
  br i1 %.not.i, label %Vec_IntFree.exit, label %53

53:                                               ; preds = %Abc_Clock.exit29
  call void @free(ptr noundef nonnull %52) #19
  br label %Vec_IntFree.exit

Vec_IntFree.exit:                                 ; preds = %Abc_Clock.exit29, %53
  call void @free(ptr noundef nonnull %10) #19
  ret i32 1
}